
 vcompat

 Start         Length     Name                   Class
 0001:00000000 000001920H _TEXT                  CODE 32-bit
 0002:00000000 000000000H CODE32                 CODE 32-bit
 0002:00000000 0000013BAH GLOBDATA               DATA 32-bit
 0003:00000000 000000AACH _DATA                  DATA 32-bit
 0003:00000AAC 00000007FH CONST                  DATA 32-bit
 0003:00000B2C 000000000H CONST2                 DATA 32-bit
 0003:00000B2C 000000000H DATA32                 DATA 32-bit
 0003:00000B2C 000000000H _BSS                   BSS 32-bit

 Origin   Group
 0000:0   FLAT
 0003:0   DGROUP

  Address         Publics by Name

 0003:00000060       AutoVPMStiTimerHandle
 0003:0000005C       CDROM_CHARDEV_Information
 0003:0000005C       CDROM_DriveCount
 0003:0000005E       CDROM_FirstDriveNo
 0002:000001E8       CONST_CDROM_CHARDEV
 0002:0000006E       CONST_COMPAT_2GBLIMIT
 0002:00000089       CONST_COMPAT_CDROM
 0002:0000009D       CONST_COMPAT_CDROM_REPLACE
 0002:00000018       CONST_COMPAT_COPYRIGHT
 0002:000000BB       CONST_COMPAT_DEBUG
 0002:000000CF       CONST_COMPAT_DPMI
 0002:000000FE       CONST_COMPAT_DPMI_ANTICLI
 0002:00000119       CONST_COMPAT_DPMI_MEMORY
 0002:000000E2       CONST_COMPAT_DPMI_NOHOOK
 0002:00000133       CONST_COMPAT_GOSIERRA
 0002:0000014A       CONST_COMPAT_GOSIERRA_NOVSOUND
 0002:00000169       CONST_COMPAT_JOYSTICKBIOS
 0002:00000184       CONST_COMPAT_MAGICVMPATCHER
 0002:000001A1       CONST_COMPAT_MAGICVM_AUTO
 0002:000001A1       CONST_COMPAT_MAGICVM_ENUM
 0002:000001B3       CONST_COMPAT_MAGICVM_OFF
 0002:000001AB       CONST_COMPAT_MAGICVM_ON
 0002:0000000A       CONST_COMPAT_MAIN
 0002:000001BD       CONST_COMPAT_MOUSENSE
 0002:00000000       CONST_CR
 0002:000001F1       CONST_DPMDOS
 0002:000001D6       CONST_DPMI_MEMORY_LIMIT
 0002:0000026F       CONST_PopUpEnd
 0002:00000206       CONST_PopUpStart
 0002:000001F8       CONST_VCDROM
 0002:00000002       CONST_VCOMPAT
 0002:000001FF       CONST_VSOUND
 0003:00000004       CurVDMHandle
 0001:00000000       dd_strcmp
 0001:0000002A       DebugBeep
 0001:0000003C       DebugBeepDetect
 0003:00000000       DebugFileHandle
 0001:0000004E       DebugPrint
 0001:0000007A       DebugPrintCR
 0001:000000BA       DebugPrintF
 0001:0000010C       DebugWriteBin
 0001:0000134B       DPMIRouter_FindCodeSelector
 0001:0000132A       DPMIRouter_FindMemoryBlock
 0001:00000FAD       DPMIRouter_InjectedCode
 0001:000004EA       INIT
 0001:00000149       InstallPatchModule
 0001:00000B3D       InternalByteOutHex
 0001:00000944       InternalSPrintF
 0002:000007F5       MagicVMPData_Clipper
 0002:00000B89       MagicVMPData_INT31CreateTask
 0002:00000B99       MagicVMPData_INT31CreateTaskWarp3
 0002:00000BA9       MagicVMPData_INT31EndTask
 0002:00000BB9       MagicVMPData_INT31Query
 0002:00000B79       MagicVMPData_INT31Router
 0002:00000776       MagicVMPData_MicrosuckC
 0002:000008F6       MagicVMPData_SierraDriverBugDynamix
 0002:000008A6       MagicVMPData_SierraDriverBugType1
 0002:000008B6       MagicVMPData_SierraDriverBugType1b
 0002:000008C6       MagicVMPData_SierraDriverBugType2
 0002:000008D6       MagicVMPData_SierraDriverBugType2b
 0002:000008E6       MagicVMPData_SierraDriverBugType3
 0002:00000714       MagicVMPData_TurboPascalCRT
 0001:00000E81       MagicVMP_AnalyseCLImemoryBlock
 0001:00000EE3       MagicVMP_AnalyseCLIsnippet
 0001:00000DE0       MagicVMP_ApplyPatch
 0001:00000E49       MagicVMP_DoAntiCLI
 0001:00000CEA       MagicVMP_GetNamePtr
 0001:00000F5E       MagicVMP_IdentifyOpCode
 0001:00000CF5       MagicVMP_SearchSignature
 0001:00000D70       MagicVMP_SearchSignatureInSel
 0002:000002F4       OrgINT31CreateTaskPtr
 0002:000002F8       OrgINT31EndTaskPtr
 0002:000002FC       OrgINT31QueryPtr
 0002:000002F0       OrgINT31RouterPtr
 0002:0000030E       PATCH_2GBLIMIT
 0003:00000010       PATCH_2GBLIMITinDOSptr
 0002:0000030C       PATCH_2GBLIMITlength
 0002:0000038E       PATCH_CDROM
 0003:00000014       PATCH_CDROMinDOSptr
 0002:0000038C       PATCH_CDROMlength
 0002:00000494       PATCH_CDROMREP
 0002:00000492       PATCH_CDROMREPlength
 0002:000004F2       PATCH_COMPATDD
 0002:000004F0       PATCH_COMPATDDlength
 0003:0000000C       PATCH_DeviceDriverInDOSptr
 0002:000005EC       PATCH_DPMITRIG
 0003:00000018       PATCH_DPMITRIGinDOSptr
 0002:000005EA       PATCH_DPMITRIGlength
 0003:00000028       PATCH_FirstPatchSegPtr
 0002:00000618       PATCH_INT25
 0003:0000001C       PATCH_INT25inDOSptr
 0002:00000616       PATCH_INT25length
 0002:00000660       PATCH_JOYSTICK
 0003:00000020       PATCH_JOYSTICKBIOSinDOSptr
 0002:0000065E       PATCH_JOYSTICKlength
 0003:0000002C       PATCH_LastPatchSegPtr
 0002:000006C0       PATCH_MOUSENSE
 0003:00000024       PATCH_MOUSENSEinDOSptr
 0002:000006BE       PATCH_MOUSENSElength
 0003:00000030       PROPERTY_DEBUG
 0003:00000034       PROPERTY_DPMI
 0003:00000038       PROPERTY_DPMIAntiCLI
 0003:0000003C       PROPERTY_DPMIMemory
 0003:00000040       PROPERTY_DPMIMemoryLimit
 0003:00000044       PROPERTY_GOSIERRA
 0003:0000004C       PROPERTY_VMPatcherAUTO
 0003:00000048       PROPERTY_VMPatcherON
 0003:00000068       PTR_FirstMCB
 0003:0000006C       PTR_ListOfLists
 0001:0000012F       SPrintF
 0001:00000916       StrCpy
 0001:000008F4       StrLen
 0003:00000058       TRIGGER_CompatDDInstalled
 0003:00000050       TRIGGER_InINT21Execute
 0003:00000054       TRIGGER_TurboPascalDPMI
 0002:00000300       TRIGGER_VCDROMReplacement
 0002:00000308       TRIGGER_VDPMIHooked
 0002:00000304       TRIGGER_VSOUNDFound
 0001:0000136D       V86PreHook_INT21h
 0003:00000008       VCOMPAT_APIBreakPoint
 0001:00000C57       VCOMPAT_APIEntry
 0001:000014E2       VCOMPAT_AskUserAboutPatch
 0001:000018F6       VCOMPAT_AutoVPMSti
 0001:00000BC4       VCOMPAT_InitPatchModules
 0001:000018A1       VCOMPAT_MagicVMPatcherInPM_INT10
 0001:00001770       VCOMPAT_MagicVMPatcherInRM_Clipper_TimerBug
 0001:000017AC       VCOMPAT_MagicVMPatcherInRM_IRQDetection
 0001:00001731       VCOMPAT_MagicVMPatcherInRM_MS_C_TimerInitBug
 0001:000016F2       VCOMPAT_MagicVMPatcherInRM_TurboPascalCRT
 0001:00001452       VCOMPAT_PatchDeviceDriverHeaders
 0001:000015B7       VCOMPAT_ProcessVMPBundle
 0001:0000168C       VCOMPAT_ProcessVMPBundleInSelectors
 0001:00001620       VCOMPAT_ProcessVMPBundleWithinMCB
 0001:00001565       VCOMPAT_SearchSignatureWithinMCB
 0001:00001412       VDDAPI
 0001:00000B62       VDD_InitInstanceData
 0001:00001450       VDD_INT3
 0001:00000B75       VDD_ResetMemSelTable
 0000:00000000  Imp  VDHALLOCDOSMEM       (MVDM.29)
 0000:00000000  Imp  VDHALLOCHOOK         (MVDM.86)
 0000:00000000  Imp  VDHARMBPHOOK         (MVDM.18)
 0000:00000000  Imp  VDHARMTIMERHOOK      (MVDM.49)
 0000:00000000  Imp  VDHCHANGEVPMIF       (MVDM.128)
 0000:00000000  Imp  VDHCheckPagePerm     (MVDM.132)
 0000:00000000  Imp  VDHCLOSE             (MVDM.52)
 0000:00000000  Imp  VDHCLOSEVDD          (MVDM.124)
 0000:00000000  Imp  VDHCOPYMEM           (MVDM.34)
 0000:00000000  Imp  VDHDEVBEEP           (MVDM.78)
 0000:00000000  Imp  VDHDEVIOCTL          (MVDM.67)
 0000:00000000  Imp  VDHGetSelBase        (MVDM.129)
 0000:00000000  Imp  VDHINSTALLINTHOOK    (MVDM.17)
 0000:00000000  Imp  VDHINSTALLUSERHOOK   (MVDM.3)
 0000:00000000  Imp  VDHKillVDM           (MVDM.5)
 0000:00000000  Imp  VDHOPEN              (MVDM.51)
 0000:00000000  Imp  VDHOPENVDD           (MVDM.25)
 0000:00000000  Imp  VDHPopInt            (MVDM.56)
 0000:00000000  Imp  VDHPOPUP             (MVDM.4)
 0000:00000000  Imp  VDHQUERYPROPERTY     (MVDM.104)
 0000:00000000  Imp  VDHReadUBuf          (MVDM.130)
 0000:00000000  Imp  VDHREGISTERDPMI      (MVDM.126)
 0000:00000000  Imp  VDHREGISTERPROPERTY  (MVDM.103)
 0000:00000000  Imp  VDHREGISTERVDD       (MVDM.24)
 0000:00000000  Imp  VDHREQUESTVDD        (MVDM.26)
 0000:00000000  Imp  VDHSETDOSDEVICE      (MVDM.1)
 0000:00000000  Imp  VDHWRITE             (MVDM.54)
 0000:00000000  Imp  VDHWriteUBuf         (MVDM.131)
 0000:00000000  Imp  VDHYield             (MVDM.70)
 0001:000001BF       VDMCREATE
 0001:000004C8       VDMTERMINATE
 0000:00000000  Imp  _flVdmStatus         (MVDM.123)
 0000:00000000  Imp  _TKSSBase            (MVDM.2)

  Address         Publics by Value

 0000:00000000  Imp  VDHINSTALLUSERHOOK   (MVDM.3)
 0000:00000000  Imp  VDHREGISTERPROPERTY  (MVDM.103)
 0000:00000000  Imp  _TKSSBase            (MVDM.2)
 0000:00000000  Imp  VDHSETDOSDEVICE      (MVDM.1)
 0000:00000000  Imp  VDHCOPYMEM           (MVDM.34)
 0000:00000000  Imp  VDHINSTALLINTHOOK    (MVDM.17)
 0000:00000000  Imp  VDHOPEN              (MVDM.51)
 0000:00000000  Imp  VDHARMTIMERHOOK      (MVDM.49)
 0000:00000000  Imp  VDHCheckPagePerm     (MVDM.132)
 0000:00000000  Imp  VDHPOPUP             (MVDM.4)
 0000:00000000  Imp  VDHREGISTERDPMI      (MVDM.126)
 0000:00000000  Imp  _flVdmStatus         (MVDM.123)
 0000:00000000  Imp  VDHREQUESTVDD        (MVDM.26)
 0000:00000000  Imp  VDHYield             (MVDM.70)
 0000:00000000  Imp  VDHGetSelBase        (MVDM.129)
 0000:00000000  Imp  VDHDEVBEEP           (MVDM.78)
 0000:00000000  Imp  VDHWriteUBuf         (MVDM.131)
 0000:00000000  Imp  VDHReadUBuf          (MVDM.130)
 0000:00000000  Imp  VDHREGISTERVDD       (MVDM.24)
 0000:00000000  Imp  VDHPopInt            (MVDM.56)
 0000:00000000  Imp  VDHCLOSEVDD          (MVDM.124)
 0000:00000000  Imp  VDHALLOCDOSMEM       (MVDM.29)
 0000:00000000  Imp  VDHWRITE             (MVDM.54)
 0000:00000000  Imp  VDHDEVIOCTL          (MVDM.67)
 0000:00000000  Imp  VDHKillVDM           (MVDM.5)
 0000:00000000  Imp  VDHALLOCHOOK         (MVDM.86)
 0000:00000000  Imp  VDHARMBPHOOK         (MVDM.18)
 0000:00000000  Imp  VDHQUERYPROPERTY     (MVDM.104)
 0000:00000000  Imp  VDHCLOSE             (MVDM.52)
 0000:00000000  Imp  VDHCHANGEVPMIF       (MVDM.128)
 0000:00000000  Imp  VDHOPENVDD           (MVDM.25)
 0001:00000000       dd_strcmp
 0001:0000002A       DebugBeep
 0001:0000003C       DebugBeepDetect
 0001:0000004E       DebugPrint
 0001:0000007A       DebugPrintCR
 0001:000000BA       DebugPrintF
 0001:0000010C       DebugWriteBin
 0001:0000012F       SPrintF
 0001:00000149       InstallPatchModule
 0001:000001BF       VDMCREATE
 0001:000004C8       VDMTERMINATE
 0001:000004EA       INIT
 0001:000008F4       StrLen
 0001:00000916       StrCpy
 0001:00000944       InternalSPrintF
 0001:00000B3D       InternalByteOutHex
 0001:00000B62       VDD_InitInstanceData
 0001:00000B75       VDD_ResetMemSelTable
 0001:00000BC4       VCOMPAT_InitPatchModules
 0001:00000C57       VCOMPAT_APIEntry
 0001:00000CEA       MagicVMP_GetNamePtr
 0001:00000CF5       MagicVMP_SearchSignature
 0001:00000D70       MagicVMP_SearchSignatureInSel
 0001:00000DE0       MagicVMP_ApplyPatch
 0001:00000E49       MagicVMP_DoAntiCLI
 0001:00000E81       MagicVMP_AnalyseCLImemoryBlock
 0001:00000EE3       MagicVMP_AnalyseCLIsnippet
 0001:00000F5E       MagicVMP_IdentifyOpCode
 0001:00000FAD       DPMIRouter_InjectedCode
 0001:0000132A       DPMIRouter_FindMemoryBlock
 0001:0000134B       DPMIRouter_FindCodeSelector
 0001:0000136D       V86PreHook_INT21h
 0001:00001412       VDDAPI
 0001:00001450       VDD_INT3
 0001:00001452       VCOMPAT_PatchDeviceDriverHeaders
 0001:000014E2       VCOMPAT_AskUserAboutPatch
 0001:00001565       VCOMPAT_SearchSignatureWithinMCB
 0001:000015B7       VCOMPAT_ProcessVMPBundle
 0001:00001620       VCOMPAT_ProcessVMPBundleWithinMCB
 0001:0000168C       VCOMPAT_ProcessVMPBundleInSelectors
 0001:000016F2       VCOMPAT_MagicVMPatcherInRM_TurboPascalCRT
 0001:00001731       VCOMPAT_MagicVMPatcherInRM_MS_C_TimerInitBug
 0001:00001770       VCOMPAT_MagicVMPatcherInRM_Clipper_TimerBug
 0001:000017AC       VCOMPAT_MagicVMPatcherInRM_IRQDetection
 0001:000018A1       VCOMPAT_MagicVMPatcherInPM_INT10
 0001:000018F6       VCOMPAT_AutoVPMSti
 0002:00000000       CONST_CR
 0002:00000002       CONST_VCOMPAT
 0002:0000000A       CONST_COMPAT_MAIN
 0002:00000018       CONST_COMPAT_COPYRIGHT
 0002:0000006E       CONST_COMPAT_2GBLIMIT
 0002:00000089       CONST_COMPAT_CDROM
 0002:0000009D       CONST_COMPAT_CDROM_REPLACE
 0002:000000BB       CONST_COMPAT_DEBUG
 0002:000000CF       CONST_COMPAT_DPMI
 0002:000000E2       CONST_COMPAT_DPMI_NOHOOK
 0002:000000FE       CONST_COMPAT_DPMI_ANTICLI
 0002:00000119       CONST_COMPAT_DPMI_MEMORY
 0002:00000133       CONST_COMPAT_GOSIERRA
 0002:0000014A       CONST_COMPAT_GOSIERRA_NOVSOUND
 0002:00000169       CONST_COMPAT_JOYSTICKBIOS
 0002:00000184       CONST_COMPAT_MAGICVMPATCHER
 0002:000001A1       CONST_COMPAT_MAGICVM_ENUM
 0002:000001A1       CONST_COMPAT_MAGICVM_AUTO
 0002:000001AB       CONST_COMPAT_MAGICVM_ON
 0002:000001B3       CONST_COMPAT_MAGICVM_OFF
 0002:000001BD       CONST_COMPAT_MOUSENSE
 0002:000001D6       CONST_DPMI_MEMORY_LIMIT
 0002:000001E8       CONST_CDROM_CHARDEV
 0002:000001F1       CONST_DPMDOS
 0002:000001F8       CONST_VCDROM
 0002:000001FF       CONST_VSOUND
 0002:00000206       CONST_PopUpStart
 0002:0000026F       CONST_PopUpEnd
 0002:000002F0       OrgINT31RouterPtr
 0002:000002F4       OrgINT31CreateTaskPtr
 0002:000002F8       OrgINT31EndTaskPtr
 0002:000002FC       OrgINT31QueryPtr
 0002:00000300       TRIGGER_VCDROMReplacement
 0002:00000304       TRIGGER_VSOUNDFound
 0002:00000308       TRIGGER_VDPMIHooked
 0002:0000030C       PATCH_2GBLIMITlength
 0002:0000030E       PATCH_2GBLIMIT
 0002:0000038C       PATCH_CDROMlength
 0002:0000038E       PATCH_CDROM
 0002:00000492       PATCH_CDROMREPlength
 0002:00000494       PATCH_CDROMREP
 0002:000004F0       PATCH_COMPATDDlength
 0002:000004F2       PATCH_COMPATDD
 0002:000005EA       PATCH_DPMITRIGlength
 0002:000005EC       PATCH_DPMITRIG
 0002:00000616       PATCH_INT25length
 0002:00000618       PATCH_INT25
 0002:0000065E       PATCH_JOYSTICKlength
 0002:00000660       PATCH_JOYSTICK
 0002:000006BE       PATCH_MOUSENSElength
 0002:000006C0       PATCH_MOUSENSE
 0002:00000714       MagicVMPData_TurboPascalCRT
 0002:00000776       MagicVMPData_MicrosuckC
 0002:000007F5       MagicVMPData_Clipper
 0002:000008A6       MagicVMPData_SierraDriverBugType1
 0002:000008B6       MagicVMPData_SierraDriverBugType1b
 0002:000008C6       MagicVMPData_SierraDriverBugType2
 0002:000008D6       MagicVMPData_SierraDriverBugType2b
 0002:000008E6       MagicVMPData_SierraDriverBugType3
 0002:000008F6       MagicVMPData_SierraDriverBugDynamix
 0002:00000B79       MagicVMPData_INT31Router
 0002:00000B89       MagicVMPData_INT31CreateTask
 0002:00000B99       MagicVMPData_INT31CreateTaskWarp3
 0002:00000BA9       MagicVMPData_INT31EndTask
 0002:00000BB9       MagicVMPData_INT31Query
 0003:00000000       DebugFileHandle
 0003:00000004       CurVDMHandle
 0003:00000008       VCOMPAT_APIBreakPoint
 0003:0000000C       PATCH_DeviceDriverInDOSptr
 0003:00000010       PATCH_2GBLIMITinDOSptr
 0003:00000014       PATCH_CDROMinDOSptr
 0003:00000018       PATCH_DPMITRIGinDOSptr
 0003:0000001C       PATCH_INT25inDOSptr
 0003:00000020       PATCH_JOYSTICKBIOSinDOSptr
 0003:00000024       PATCH_MOUSENSEinDOSptr
 0003:00000028       PATCH_FirstPatchSegPtr
 0003:0000002C       PATCH_LastPatchSegPtr
 0003:00000030       PROPERTY_DEBUG
 0003:00000034       PROPERTY_DPMI
 0003:00000038       PROPERTY_DPMIAntiCLI
 0003:0000003C       PROPERTY_DPMIMemory
 0003:00000040       PROPERTY_DPMIMemoryLimit
 0003:00000044       PROPERTY_GOSIERRA
 0003:00000048       PROPERTY_VMPatcherON
 0003:0000004C       PROPERTY_VMPatcherAUTO
 0003:00000050       TRIGGER_InINT21Execute
 0003:00000054       TRIGGER_TurboPascalDPMI
 0003:00000058       TRIGGER_CompatDDInstalled
 0003:0000005C       CDROM_CHARDEV_Information
 0003:0000005C       CDROM_DriveCount
 0003:0000005E       CDROM_FirstDriveNo
 0003:00000060       AutoVPMStiTimerHandle
 0003:00000068       PTR_FirstMCB
 0003:0000006C       PTR_ListOfLists

Program entry point at 0001:000004EA
