
 vcompat

 Start         Length     Name                   Class
 0001:00000000 000000DFBH _TEXT                  CODE 32-bit
 0002:00000000 000000000H CODE32                 CODE 32-bit
 0002:00000000 000000F53H GLOBDATA               DATA 32-bit
 0003:00000000 000000954H _DATA                  DATA 32-bit
 0003:00000954 000000000H CONST                  DATA 32-bit
 0003:00000954 000000000H CONST2                 DATA 32-bit
 0003:00000954 000000000H DATA32                 DATA 32-bit
 0003:00000954 000000000H _BSS                   BSS 32-bit

 Origin   Group
 0000:0   FLAT
 0003:0   DGROUP

  Address         Publics by Name

 0003:0000003E       AutoVPMStiTimerHandle
 0002:00000054       CONST_COMPAT_2GBLIMIT
 0002:0000006F       CONST_COMPAT_CDROM
 0002:0000000E       CONST_COMPAT_COPYRIGHT
 0002:0000013A       CONST_COMPAT_DevName
 0002:00000083       CONST_COMPAT_DPMI
 0002:000000B2       CONST_COMPAT_DPMI_ANTICLI
 0002:00000096       CONST_COMPAT_DPMI_NOHOOK
 0002:000000CD       CONST_COMPAT_JOYSTICKBIOS
 0002:000000E8       CONST_COMPAT_MAGICVMPATCHER
 0002:00000105       CONST_COMPAT_MAGICVM_AUTO
 0002:00000105       CONST_COMPAT_MAGICVM_ENUM
 0002:00000117       CONST_COMPAT_MAGICVM_OFF
 0002:0000010F       CONST_COMPAT_MAGICVM_ON
 0002:00000000       CONST_COMPAT_MAIN
 0002:00000121       CONST_COMPAT_MOUSENSE
 0002:00000143       CONST_DPMDOS
 0001:00000000       dd_strcmp
 0001:0000002A       DebugBeep
 0001:0000003C       DebugBeepDetect
 0001:00000859       DPMIRouter_ApplyPatch
 0001:00000B27       DPMIRouter_FindCodeSelector
 0001:00000B06       DPMIRouter_FindMemoryBlock
 0001:0000088B       DPMIRouter_InjectedCode
 0003:00000042       FirstMCBpointer
 0001:0000032B       INIT
 0001:000000D4       InstallPatchModule
 0002:000007CE       MagicData_INT31CreateTask
 0002:000007F7       MagicData_INT31EndTask
 0002:00000819       MagicData_INT31Query
 0002:000007AC       MagicData_INT31Router
 0002:000006F7       MagicData_MicrosuckC
 0002:00000731       MagicData_MicrosuckCpatch
 0002:0000073F       MagicData_MicrosuckCtext
 0002:000005F6       MagicData_TurboPascalCRT
 0002:00000686       MagicData_TurboPascalCRTDPMItext
 0002:0000060A       MagicData_TurboPascalCRTpatch
 0002:0000061A       MagicData_TurboPascalCRTtext
 0001:0000072D       MagicVMP_AnalyseCLImemoryBlock
 0001:0000078F       MagicVMP_AnalyseCLIsnippet
 0001:000006D4       MagicVMP_ApplyPatch
 0001:000006F5       MagicVMP_DoAntiCLI
 0001:0000080A       MagicVMP_IdentifyOpCode
 0001:000005FA       MagicVMP_SearchSignature
 0001:00000664       MagicVMP_SearchSignatureInSel
 0003:00000000       MyVDMHandle
 0002:0000014E       OrgINT31CreateTaskPtr
 0002:00000152       OrgINT31EndTaskPtr
 0002:00000156       OrgINT31QueryPtr
 0002:0000014A       OrgINT31RouterPtr
 0002:0000015C       PATCH_2GBLIMIT
 0003:00000008       PATCH_2GBLIMITinDOSptr
 0002:0000015A       PATCH_2GBLIMITlength
 0002:000001E2       PATCH_CDROM
 0003:0000000C       PATCH_CDROMinDOSptr
 0002:000001E0       PATCH_CDROMlength
 0002:00000332       PATCH_COMPATDD
 0002:00000330       PATCH_COMPATDDlength
 0003:00000004       PATCH_DeviceDriverInDOSptr
 0002:000004BA       PATCH_DPMITRIG
 0003:00000010       PATCH_DPMITRIGinDOSptr
 0002:000004B8       PATCH_DPMITRIGlength
 0002:000004EA       PATCH_INT25
 0003:00000014       PATCH_INT25inDOSptr
 0002:000004E8       PATCH_INT25length
 0002:00000538       PATCH_JOYSTICK
 0003:00000018       PATCH_JOYSTICKBIOSinDOSptr
 0002:00000536       PATCH_JOYSTICKlength
 0002:0000059C       PATCH_MOUSENSE
 0003:0000001C       PATCH_MOUSENSEinDOSptr
 0002:0000059A       PATCH_MOUSENSElength
 0003:00000020       PATCH_NextPatchSegPtr
 0003:00000024       PROPERTY_DPMI
 0003:00000028       PROPERTY_DPMIAntiCLI
 0003:00000030       PROPERTY_VMPatcherAUTO
 0003:0000002C       PROPERTY_VMPatcherON
 0003:0000003C       TempV86seg
 0003:00000034       TRIGGER_InINT21Execute
 0003:00000038       TRIGGER_TurboPascalDPMI
 0001:00000B49       V86PreHook_INT21h
 0001:00000DD1       VCOMPAT_AutoVPMSti
 0001:00000D97       VCOMPAT_MagicVMPatcherInPM_INT10
 0001:00000D53       VCOMPAT_MagicVMPatcherInPM_TurboPascalCRT
 0001:00000CED       VCOMPAT_MagicVMPatcherInRM_MS_C_TimerInitBug
 0001:00000C87       VCOMPAT_MagicVMPatcherInRM_TurboPascalCRT
 0001:00000BE9       VCOMPAT_MagicVMpopup
 0001:00000C35       VCOMPAT_SearchSignatureInMCB
 0001:0000004E       VCOMPAT_VMAPI
 0001:00000598       VDD_InitInstanceData
 0001:00000BE7       VDD_INT3
 0001:000005AB       VDD_ResetMemSelTable
 0000:00000000  Imp  VDHALLOCDOSMEM       (MVDM.29)
 0000:00000000  Imp  VDHALLOCHOOK         (MVDM.86)
 0000:00000000  Imp  VDHARMTIMERHOOK      (MVDM.49)
 0000:00000000  Imp  VDHCHANGEVPMIF       (MVDM.128)
 0000:00000000  Imp  VDHCheckPagePerm     (MVDM.132)
 0000:00000000  Imp  VDHCLOSEVDD          (MVDM.124)
 0000:00000000  Imp  VDHCOPYMEM           (MVDM.34)
 0000:00000000  Imp  VDHDEVBEEP           (MVDM.78)
 0000:00000000  Imp  VDHGetSelBase        (MVDM.129)
 0000:00000000  Imp  VDHINSTALLINTHOOK    (MVDM.17)
 0000:00000000  Imp  VDHINSTALLUSERHOOK   (MVDM.3)
 0000:00000000  Imp  VDHKILLVDM           (MVDM.5)
 0000:00000000  Imp  VDHOPENVDD           (MVDM.25)
 0000:00000000  Imp  VDHPOPSTACK          (MVDM.109)
 0000:00000000  Imp  VDHPOPUP             (MVDM.4)
 0000:00000000  Imp  VDHQUERYPROPERTY     (MVDM.104)
 0000:00000000  Imp  VDHReadUBuf          (MVDM.130)
 0000:00000000  Imp  VDHREGISTERAPI       (MVDM.61)
 0000:00000000  Imp  VDHREGISTERDPMI      (MVDM.126)
 0000:00000000  Imp  VDHREGISTERPROPERTY  (MVDM.103)
 0000:00000000  Imp  VDHREQUESTVDD        (MVDM.26)
 0000:00000000  Imp  VDHSETDOSDEVICE      (MVDM.1)
 0000:00000000  Imp  VDHYield             (MVDM.70)
 0001:00000138       VDMCREATE
 0000:00000000  Imp  _flVdmStatus         (MVDM.123)
 0000:00000000  Imp  _TKSSBase            (MVDM.2)

  Address         Publics by Value

 0000:00000000  Imp  VDHCHANGEVPMIF       (MVDM.128)
 0000:00000000  Imp  _flVdmStatus         (MVDM.123)
 0000:00000000  Imp  VDHREGISTERPROPERTY  (MVDM.103)
 0000:00000000  Imp  VDHINSTALLINTHOOK    (MVDM.17)
 0000:00000000  Imp  VDHQUERYPROPERTY     (MVDM.104)
 0000:00000000  Imp  VDHARMTIMERHOOK      (MVDM.49)
 0000:00000000  Imp  VDHINSTALLUSERHOOK   (MVDM.3)
 0000:00000000  Imp  VDHCOPYMEM           (MVDM.34)
 0000:00000000  Imp  VDHYield             (MVDM.70)
 0000:00000000  Imp  VDHREGISTERDPMI      (MVDM.126)
 0000:00000000  Imp  VDHREGISTERAPI       (MVDM.61)
 0000:00000000  Imp  VDHALLOCDOSMEM       (MVDM.29)
 0000:00000000  Imp  VDHPOPUP             (MVDM.4)
 0000:00000000  Imp  VDHCheckPagePerm     (MVDM.132)
 0000:00000000  Imp  VDHSETDOSDEVICE      (MVDM.1)
 0000:00000000  Imp  VDHReadUBuf          (MVDM.130)
 0000:00000000  Imp  VDHCLOSEVDD          (MVDM.124)
 0000:00000000  Imp  VDHKILLVDM           (MVDM.5)
 0000:00000000  Imp  VDHGetSelBase        (MVDM.129)
 0000:00000000  Imp  VDHPOPSTACK          (MVDM.109)
 0000:00000000  Imp  VDHREQUESTVDD        (MVDM.26)
 0000:00000000  Imp  _TKSSBase            (MVDM.2)
 0000:00000000  Imp  VDHOPENVDD           (MVDM.25)
 0000:00000000  Imp  VDHALLOCHOOK         (MVDM.86)
 0000:00000000  Imp  VDHDEVBEEP           (MVDM.78)
 0001:00000000       dd_strcmp
 0001:0000002A       DebugBeep
 0001:0000003C       DebugBeepDetect
 0001:0000004E       VCOMPAT_VMAPI
 0001:000000D4       InstallPatchModule
 0001:00000138       VDMCREATE
 0001:0000032B       INIT
 0001:00000598       VDD_InitInstanceData
 0001:000005AB       VDD_ResetMemSelTable
 0001:000005FA       MagicVMP_SearchSignature
 0001:00000664       MagicVMP_SearchSignatureInSel
 0001:000006D4       MagicVMP_ApplyPatch
 0001:000006F5       MagicVMP_DoAntiCLI
 0001:0000072D       MagicVMP_AnalyseCLImemoryBlock
 0001:0000078F       MagicVMP_AnalyseCLIsnippet
 0001:0000080A       MagicVMP_IdentifyOpCode
 0001:00000859       DPMIRouter_ApplyPatch
 0001:0000088B       DPMIRouter_InjectedCode
 0001:00000B06       DPMIRouter_FindMemoryBlock
 0001:00000B27       DPMIRouter_FindCodeSelector
 0001:00000B49       V86PreHook_INT21h
 0001:00000BE7       VDD_INT3
 0001:00000BE9       VCOMPAT_MagicVMpopup
 0001:00000C35       VCOMPAT_SearchSignatureInMCB
 0001:00000C87       VCOMPAT_MagicVMPatcherInRM_TurboPascalCRT
 0001:00000CED       VCOMPAT_MagicVMPatcherInRM_MS_C_TimerInitBug
 0001:00000D53       VCOMPAT_MagicVMPatcherInPM_TurboPascalCRT
 0001:00000D97       VCOMPAT_MagicVMPatcherInPM_INT10
 0001:00000DD1       VCOMPAT_AutoVPMSti
 0002:00000000       CONST_COMPAT_MAIN
 0002:0000000E       CONST_COMPAT_COPYRIGHT
 0002:00000054       CONST_COMPAT_2GBLIMIT
 0002:0000006F       CONST_COMPAT_CDROM
 0002:00000083       CONST_COMPAT_DPMI
 0002:00000096       CONST_COMPAT_DPMI_NOHOOK
 0002:000000B2       CONST_COMPAT_DPMI_ANTICLI
 0002:000000CD       CONST_COMPAT_JOYSTICKBIOS
 0002:000000E8       CONST_COMPAT_MAGICVMPATCHER
 0002:00000105       CONST_COMPAT_MAGICVM_ENUM
 0002:00000105       CONST_COMPAT_MAGICVM_AUTO
 0002:0000010F       CONST_COMPAT_MAGICVM_ON
 0002:00000117       CONST_COMPAT_MAGICVM_OFF
 0002:00000121       CONST_COMPAT_MOUSENSE
 0002:0000013A       CONST_COMPAT_DevName
 0002:00000143       CONST_DPMDOS
 0002:0000014A       OrgINT31RouterPtr
 0002:0000014E       OrgINT31CreateTaskPtr
 0002:00000152       OrgINT31EndTaskPtr
 0002:00000156       OrgINT31QueryPtr
 0002:0000015A       PATCH_2GBLIMITlength
 0002:0000015C       PATCH_2GBLIMIT
 0002:000001E0       PATCH_CDROMlength
 0002:000001E2       PATCH_CDROM
 0002:00000330       PATCH_COMPATDDlength
 0002:00000332       PATCH_COMPATDD
 0002:000004B8       PATCH_DPMITRIGlength
 0002:000004BA       PATCH_DPMITRIG
 0002:000004E8       PATCH_INT25length
 0002:000004EA       PATCH_INT25
 0002:00000536       PATCH_JOYSTICKlength
 0002:00000538       PATCH_JOYSTICK
 0002:0000059A       PATCH_MOUSENSElength
 0002:0000059C       PATCH_MOUSENSE
 0002:000005F6       MagicData_TurboPascalCRT
 0002:0000060A       MagicData_TurboPascalCRTpatch
 0002:0000061A       MagicData_TurboPascalCRTtext
 0002:00000686       MagicData_TurboPascalCRTDPMItext
 0002:000006F7       MagicData_MicrosuckC
 0002:00000731       MagicData_MicrosuckCpatch
 0002:0000073F       MagicData_MicrosuckCtext
 0002:000007AC       MagicData_INT31Router
 0002:000007CE       MagicData_INT31CreateTask
 0002:000007F7       MagicData_INT31EndTask
 0002:00000819       MagicData_INT31Query
 0003:00000000       MyVDMHandle
 0003:00000004       PATCH_DeviceDriverInDOSptr
 0003:00000008       PATCH_2GBLIMITinDOSptr
 0003:0000000C       PATCH_CDROMinDOSptr
 0003:00000010       PATCH_DPMITRIGinDOSptr
 0003:00000014       PATCH_INT25inDOSptr
 0003:00000018       PATCH_JOYSTICKBIOSinDOSptr
 0003:0000001C       PATCH_MOUSENSEinDOSptr
 0003:00000020       PATCH_NextPatchSegPtr
 0003:00000024       PROPERTY_DPMI
 0003:00000028       PROPERTY_DPMIAntiCLI
 0003:0000002C       PROPERTY_VMPatcherON
 0003:00000030       PROPERTY_VMPatcherAUTO
 0003:00000034       TRIGGER_InINT21Execute
 0003:00000038       TRIGGER_TurboPascalDPMI
 0003:0000003C       TempV86seg
 0003:0000003E       AutoVPMStiTimerHandle
 0003:00000042       FirstMCBpointer

Program entry point at 0001:0000032B
