
 vcmos

 Start         Length     Name                   Class
 0001:00000000 000000431H _TEXT                  CODE 32-bit
 0002:00000000 000000000H CODE32                 CODE 32-bit
 0002:00000000 000000132H GLOBDATA               DATA 32-bit
 0003:00000000 00000001CH _DATA                  DATA 32-bit
 0003:0000001C 000000000H CONST                  DATA 32-bit
 0003:0000001C 000000000H CONST2                 DATA 32-bit
 0003:0000001C 000000000H DATA32                 DATA 32-bit
 0003:0000001C 000000000H _BSS                   BSS 32-bit

 Origin   Group
 0000:0   FLAT
 0003:0   DGROUP

  Address         Publics by Name

 0002:00000005       CONST_CMOS_COPYRIGHT
 0002:00000000       CONST_CMOS_MAIN
 0002:0000006B       CONST_CMOS_VIRTUALRTC
 0002:0000007C       CONST_CMOS_VIRTUALRTC_NOGO
 0002:00000055       CONST_CMOS_WRITEPROTECT
 0002:0000009B       CONST_VDMA
 0003:00000000       CurVDMHandle
 0001:00000000       DebugBeep
 0001:00000012       DebugBeepDetect
 0001:00000024       DebugBeepShort
 0001:00000149       INIT
 0003:00000008       PROPERTY_PeriodicInterrupt
 0003:00000004       PROPERTY_WriteProtection
 0002:0000010A       VCMOS_AddrPort_IOhookTable
 0002:0000011E       VCMOS_DataPort_IOhookTable
 0001:000000AD       VCMOS_EOIHANDLER
 0001:00000287       VCMOS_InOnAddress
 0001:0000030B       VCMOS_InOnData
 0001:000003D2       VCMOS_InOnRegDate
 0001:000003C6       VCMOS_InOnRegDayOfWeek
 0001:00000396       VCMOS_InOnRegHours
 0001:0000037F       VCMOS_InOnRegMinutes
 0001:000003E9       VCMOS_InOnRegMonth
 0001:00000368       VCMOS_InOnRegSeconds
 0001:00000400       VCMOS_InOnRegYear
 0001:00000045       VCMOS_InstallIRQ8
 0002:000000AC       VCMOS_IRQ8OnVDM
 0001:00000277       VCMOS_OutOnAddress
 0001:00000297       VCMOS_OutOnData
 0002:000000B4       VCMOS_StdRTCArea
 0001:00000033       VCMOS_TIMEDCALLBACKHANDLER
 0001:00000250       VDD_InitInstanceData
 0001:0000042F       VDD_INT3
 0000:00000000  Imp  VDHCLEARVIRR         (VPIC.3)
 0000:00000000  Imp  VDHDEVBEEP           (MVDM.78)
 0000:00000000  Imp  VDHDisarmTimerHook   (MVDM.50)
 0000:00000000  Imp  VDHINSTALLIOHOOK     (MVDM.14)
 0000:00000000  Imp  VDHINSTALLUSERHOOK   (MVDM.3)
 0000:00000000  Imp  VDHOPENVDD           (MVDM.25)
 0000:00000000  Imp  VDHOPENVIRQ          (VPIC.1)
 0000:00000000  Imp  VDHQUERYPROPERTY     (MVDM.104)
 0000:00000000  Imp  VDHQuerySysValue     (MVDM.64)
 0000:00000000  Imp  VDHREGISTERPROPERTY  (MVDM.103)
 0000:00000000  Imp  VDHREQUESTVDD        (MVDM.26)
 0000:00000000  Imp  VDHSETVIRR           (VPIC.2)
 0002:000000A8       VDMA_ExtensionsFound
 0002:000000A4       VDMA_Handle
 0001:000000C1       VDMCREATE
 0001:00000128       VDMTERMINATE
 0002:000000A0       VIRQ_Handle
 0000:00000000  Imp  _flVdmStatus         (MVDM.123)
 0000:00000000  Imp  _TKSSBase            (MVDM.2)

  Address         Publics by Value

 0000:00000000  Imp  VDHQUERYPROPERTY     (MVDM.104)
 0000:00000000  Imp  VDHREGISTERPROPERTY  (MVDM.103)
 0000:00000000  Imp  VDHQuerySysValue     (MVDM.64)
 0000:00000000  Imp  VDHSETVIRR           (VPIC.2)
 0000:00000000  Imp  VDHDisarmTimerHook   (MVDM.50)
 0000:00000000  Imp  VDHOPENVDD           (MVDM.25)
 0000:00000000  Imp  VDHDEVBEEP           (MVDM.78)
 0000:00000000  Imp  VDHCLEARVIRR         (VPIC.3)
 0000:00000000  Imp  VDHOPENVIRQ          (VPIC.1)
 0000:00000000  Imp  _TKSSBase            (MVDM.2)
 0000:00000000  Imp  VDHINSTALLUSERHOOK   (MVDM.3)
 0000:00000000  Imp  _flVdmStatus         (MVDM.123)
 0000:00000000  Imp  VDHREQUESTVDD        (MVDM.26)
 0000:00000000  Imp  VDHINSTALLIOHOOK     (MVDM.14)
 0001:00000000       DebugBeep
 0001:00000012       DebugBeepDetect
 0001:00000024       DebugBeepShort
 0001:00000033       VCMOS_TIMEDCALLBACKHANDLER
 0001:00000045       VCMOS_InstallIRQ8
 0001:000000AD       VCMOS_EOIHANDLER
 0001:000000C1       VDMCREATE
 0001:00000128       VDMTERMINATE
 0001:00000149       INIT
 0001:00000250       VDD_InitInstanceData
 0001:00000277       VCMOS_OutOnAddress
 0001:00000287       VCMOS_InOnAddress
 0001:00000297       VCMOS_OutOnData
 0001:0000030B       VCMOS_InOnData
 0001:00000368       VCMOS_InOnRegSeconds
 0001:0000037F       VCMOS_InOnRegMinutes
 0001:00000396       VCMOS_InOnRegHours
 0001:000003C6       VCMOS_InOnRegDayOfWeek
 0001:000003D2       VCMOS_InOnRegDate
 0001:000003E9       VCMOS_InOnRegMonth
 0001:00000400       VCMOS_InOnRegYear
 0001:0000042F       VDD_INT3
 0002:00000000       CONST_CMOS_MAIN
 0002:00000005       CONST_CMOS_COPYRIGHT
 0002:00000055       CONST_CMOS_WRITEPROTECT
 0002:0000006B       CONST_CMOS_VIRTUALRTC
 0002:0000007C       CONST_CMOS_VIRTUALRTC_NOGO
 0002:0000009B       CONST_VDMA
 0002:000000A0       VIRQ_Handle
 0002:000000A4       VDMA_Handle
 0002:000000A8       VDMA_ExtensionsFound
 0002:000000AC       VCMOS_IRQ8OnVDM
 0002:000000B4       VCMOS_StdRTCArea
 0002:0000010A       VCMOS_AddrPort_IOhookTable
 0002:0000011E       VCMOS_DataPort_IOhookTable
 0003:00000000       CurVDMHandle
 0003:00000004       PROPERTY_WriteProtection
 0003:00000008       PROPERTY_PeriodicInterrupt

Program entry point at 0001:00000149
