
 vtimer

 Start         Length     Name                   Class
 0001:00000000 00000035FH _TEXT                  CODE 32-bit
 0002:00000000 000000000H CODE32                 CODE 32-bit
 0002:00000000 0000000E3H GLOBDATA               DATA 32-bit
 0003:00000000 00000001CH _DATA                  DATA 32-bit
 0003:0000001C 00000001FH CONST                  DATA 32-bit
 0003:0000003C 000000000H CONST2                 DATA 32-bit
 0003:0000003C 000000000H DATA32                 DATA 32-bit
 0003:0000003C 000000000H _BSS                   BSS 32-bit

 Origin   Group
 0000:0   FLAT
 0003:0   DGROUP

  Address         Publics by Name

 0002:00000065       CONST_DOS_BACKGROUND_EXEC
 0002:0000007E       CONST_HW_NOSOUND
 0002:00000089       CONST_HW_TIMER
 0002:00000000       CONST_TIMERPDD
 0002:00000015       CONST_TIMER_COPYRIGHT
 0002:00000059       CONST_TIMER_DEBUG
 0002:0000000F       CONST_TIMER_MAIN
 0002:00000007       CONST_VTIMERVDD
 0002:00000092       CONST_XMS_MEMORY_LIMIT
 0003:00000000       CurVDMHandle
 0001:00000000       dd_strcmp
 0001:0000002A       DebugBeep
 0001:0000003C       DebugBeepDetect
 0001:0000004E       DebugBeepShort
 0003:00000004       DebugFileHandle
 0001:0000005D       DebugWrite
 0001:00000083       DebugWriteBin
 0001:000001C1       INIT
 0003:0000000C       PROPERTY_DOS_BACKGROUND_EXEC
 0003:00000010       PROPERTY_HW_NOSOUND
 0003:00000014       PROPERTY_HW_TIMER
 0003:00000008       PROPERTY_TIMER_DEBUG
 0003:00000018       PROPERTY_XMS_MEMORY_LIMIT
 0001:000002AC       VDD_InitInstanceData
 0000:00000000  Imp  VDHArmContextHook    (MVDM.71)
 0000:00000000  Imp  VDHCLOSE             (MVDM.52)
 0000:00000000  Imp  VDHDEVBEEP           (MVDM.78)
 0000:00000000  Imp  VDHINSTALLIOHOOK     (MVDM.14)
 0000:00000000  Imp  VDHINSTALLUSERHOOK   (MVDM.3)
 0000:00000000  Imp  VDHOPEN              (MVDM.51)
 0000:00000000  Imp  VDHQUERYPROPERTY     (MVDM.104)
 0000:00000000  Imp  VDHREGISTERPROPERTY  (MVDM.103)
 0000:00000000  Imp  VDHREGISTERVDD       (MVDM.24)
 0000:00000000  Imp  VDHWRITE             (MVDM.54)
 0001:0000009D       VDMCREATE
 0001:0000018F       VDMTERMINATE
 0001:00000354       VTIMER_InOnKeyboard
 0001:00000326       VTIMER_InOnPITCounter
 0001:0000033C       VTIMER_InOnPITMode
 0001:00000349       VTIMER_OutOnKeyboard
 0001:0000031B       VTIMER_OutOnPITCounter
 0001:00000331       VTIMER_OutOnPITMode
 0002:000000CF       VTIMER_Ports_KeyboardIOhookTable
 0002:000000A7       VTIMER_Ports_PITCounterIOhookTable
 0002:000000BB       VTIMER_Ports_PITModeIOhookTable
 0001:000002B3       VTIMER_VDDAPI

  Address         Publics by Value

 0000:00000000  Imp  VDHINSTALLIOHOOK     (MVDM.14)
 0000:00000000  Imp  VDHREGISTERPROPERTY  (MVDM.103)
 0000:00000000  Imp  VDHOPEN              (MVDM.51)
 0000:00000000  Imp  VDHQUERYPROPERTY     (MVDM.104)
 0000:00000000  Imp  VDHDEVBEEP           (MVDM.78)
 0000:00000000  Imp  VDHCLOSE             (MVDM.52)
 0000:00000000  Imp  VDHREGISTERVDD       (MVDM.24)
 0000:00000000  Imp  VDHINSTALLUSERHOOK   (MVDM.3)
 0000:00000000  Imp  VDHArmContextHook    (MVDM.71)
 0000:00000000  Imp  VDHWRITE             (MVDM.54)
 0001:00000000       dd_strcmp
 0001:0000002A       DebugBeep
 0001:0000003C       DebugBeepDetect
 0001:0000004E       DebugBeepShort
 0001:0000005D       DebugWrite
 0001:00000083       DebugWriteBin
 0001:0000009D       VDMCREATE
 0001:0000018F       VDMTERMINATE
 0001:000001C1       INIT
 0001:000002AC       VDD_InitInstanceData
 0001:000002B3       VTIMER_VDDAPI
 0001:0000031B       VTIMER_OutOnPITCounter
 0001:00000326       VTIMER_InOnPITCounter
 0001:00000331       VTIMER_OutOnPITMode
 0001:0000033C       VTIMER_InOnPITMode
 0001:00000349       VTIMER_OutOnKeyboard
 0001:00000354       VTIMER_InOnKeyboard
 0002:00000000       CONST_TIMERPDD
 0002:00000007       CONST_VTIMERVDD
 0002:0000000F       CONST_TIMER_MAIN
 0002:00000015       CONST_TIMER_COPYRIGHT
 0002:00000059       CONST_TIMER_DEBUG
 0002:00000065       CONST_DOS_BACKGROUND_EXEC
 0002:0000007E       CONST_HW_NOSOUND
 0002:00000089       CONST_HW_TIMER
 0002:00000092       CONST_XMS_MEMORY_LIMIT
 0002:000000A7       VTIMER_Ports_PITCounterIOhookTable
 0002:000000BB       VTIMER_Ports_PITModeIOhookTable
 0002:000000CF       VTIMER_Ports_KeyboardIOhookTable
 0003:00000000       CurVDMHandle
 0003:00000004       DebugFileHandle
 0003:00000008       PROPERTY_TIMER_DEBUG
 0003:0000000C       PROPERTY_DOS_BACKGROUND_EXEC
 0003:00000010       PROPERTY_HW_NOSOUND
 0003:00000014       PROPERTY_HW_TIMER
 0003:00000018       PROPERTY_XMS_MEMORY_LIMIT

Program entry point at 0001:000001C1
